; Function Attrs: mustprogress uwtable
define hidden noundef ptr @_ZN7datalog14dl_decl_plugin11mk_is_emptyEP4sort(ptr noundef nonnull align 8 dereferenceable(160) %0, ptr noundef %1) local_unnamed_addr #3 align 2 personality ptr @__gxx_personality_v0 {
  %3 = alloca %class.ptr_vector.40, align 8
  %4 = alloca ptr, align 8
  %5 = alloca %struct.func_decl_info, align 8
  store ptr %1, ptr %4, align 8, !tbaa !62
  call void @llvm.lifetime.start.p0(i64 8, ptr nonnull %3) #22
  store ptr null, ptr %3, align 8, !tbaa !57
  %6 = invoke noundef zeroext i1 @_ZN7datalog14dl_decl_plugin11is_rel_sortEP4sortR10ptr_vectorIS1_E(ptr noundef nonnull readonly align 8 dereferenceable(160) %0, ptr noundef readonly %1, ptr noundef nonnull align 8 dereferenceable(8) %3)
          to label %7 unwind label %14

7:                                                ; preds = %2
  %8 = load ptr, ptr %3, align 8, !tbaa !57
  %.not.i.i.i = icmp eq ptr %8, null
  br i1 %.not.i.i.i, label %_ZN7datalog14dl_decl_plugin11is_rel_sortEP4sort.exit, label %9

9:                                                ; preds = %7
  %10 = getelementptr inbounds i8, ptr %8, i64 -8
  invoke void @_ZN6memory10deallocateEPv(ptr noundef nonnull %10)
          to label %_ZN7datalog14dl_decl_plugin11is_rel_sortEP4sort.exit unwind label %11

11:                                               ; preds = %9
  %12 = landingpad { ptr, i32 }
          catch ptr null
  %13 = extractvalue { ptr, i32 } %12, 0
  call void @__clang_call_terminate(ptr %13) #25
  unreachable

common.resume:                                    ; preds = %44, %14
  %common.resume.op = phi { ptr, i32 } [ %15, %14 ], [ %45, %44 ]
  resume { ptr, i32 } %common.resume.op

14:                                               ; preds = %2
  %15 = landingpad { ptr, i32 }
          cleanup
  call void @_ZN6vectorIP4sortLb0EjED2Ev(ptr noundef nonnull align 8 dereferenceable(8) %3) #22
  call void @llvm.lifetime.end.p0(i64 8, ptr nonnull %3) #22
  br label %common.resume

_ZN7datalog14dl_decl_plugin11is_rel_sortEP4sort.exit: ; preds = %7, %9
  call void @llvm.lifetime.end.p0(i64 8, ptr nonnull %3) #22
  call void @llvm.lifetime.start.p0(i64 24, ptr nonnull %5) #22
  %16 = getelementptr inbounds nuw i8, ptr %0, i64 16
  %17 = load i32, ptr %16, align 8, !tbaa !10
  call void @_ZN14func_decl_infoC1EiijPK9parameter(ptr noundef nonnull align 8 dereferenceable(19) %5, i32 noundef %17, i32 noundef 2, i32 noundef 0, ptr noundef null)
  %18 = getelementptr inbounds nuw i8, ptr %0, i64 8
  %19 = load ptr, ptr %18, align 8, !tbaa !3
  %20 = getelementptr inbounds nuw i8, ptr %19, i64 840
  %21 = load ptr, ptr %20, align 8, !tbaa !95
  %22 = getelementptr inbounds nuw i8, ptr %0, i64 40
  %23 = load i32, ptr %5, align 8, !tbaa !43
  %24 = icmp eq i32 %23, -1
  br i1 %24, label %25, label %_ZNK14func_decl_info7is_nullEv.exit.thread.i

25:                                               ; preds = %_ZN7datalog14dl_decl_plugin11is_rel_sortEP4sort.exit
  %26 = getelementptr inbounds nuw i8, ptr %5, i64 17
  %27 = load i16, ptr %26, align 1
  %28 = trunc i16 %27 to i1
  %29 = and i16 %27, 506
  %30 = icmp ne i16 %29, 0
  %or.cond.not.i = or i1 %30, %28
  br i1 %or.cond.not.i, label %_ZNK14func_decl_info7is_nullEv.exit.thread.i, label %31

_ZNK14func_decl_info7is_nullEv.exit.thread.i:     ; preds = %25, %_ZN7datalog14dl_decl_plugin11is_rel_sortEP4sort.exit
  br label %31

31:                                               ; preds = %_ZNK14func_decl_info7is_nullEv.exit.thread.i, %25
  %.sink.i = phi ptr [ %5, %_ZNK14func_decl_info7is_nullEv.exit.thread.i ], [ null, %25 ]
  %32 = invoke noundef ptr @_ZN11ast_manager12mk_func_declERK6symboljPKP4sortS4_P14func_decl_info(ptr noundef nonnull align 8 dereferenceable(976) %19, ptr noundef nonnull align 8 dereferenceable(8) %22, i32 noundef 1, ptr noundef nonnull %4, ptr noundef %21, ptr noundef %.sink.i)
          to label %_ZN11ast_manager12mk_func_declERK6symboljPKP4sortS4_RK14func_decl_info.exit unwind label %44

_ZN11ast_manager12mk_func_declERK6symboljPKP4sortS4_RK14func_decl_info.exit: ; preds = %31
  %33 = getelementptr inbounds nuw i8, ptr %5, i64 8
  %34 = load ptr, ptr %33, align 8, !tbaa !48
  %.not.i.i.i4 = icmp eq ptr %34, null
  br i1 %.not.i.i.i4, label %_ZN9decl_infoD2Ev.exit, label %_ZNK6vectorI9parameterLb1EjE4sizeEv.exit.i.i.i.i

_ZNK6vectorI9parameterLb1EjE4sizeEv.exit.i.i.i.i: ; preds = %_ZN11ast_manager12mk_func_declERK6symboljPKP4sortS4_RK14func_decl_info.exit
  %35 = getelementptr inbounds i8, ptr %34, i64 -4
  %36 = load i32, ptr %35, align 4, !tbaa !49
  %.not5.i.i.i.i.i.i.i = icmp eq i32 %36, 0
  br i1 %.not5.i.i.i.i.i.i.i, label %_ZN6vectorI9parameterLb1EjE16destroy_elementsEv.exit.i.i.i, label %.lr.ph.i.i.i.i.i.i.i

.lr.ph.i.i.i.i.i.i.i:                             ; preds = %_ZNK6vectorI9parameterLb1EjE4sizeEv.exit.i.i.i.i, %.lr.ph.i.i.i.i.i.i.i
  %.07.i.i.i.i.i.i.i = phi i32 [ %38, %.lr.ph.i.i.i.i.i.i.i ], [ %36, %_ZNK6vectorI9parameterLb1EjE4sizeEv.exit.i.i.i.i ]
  %.046.i.i.i.i.i.i.i = phi ptr [ %37, %.lr.ph.i.i.i.i.i.i.i ], [ %34, %_ZNK6vectorI9parameterLb1EjE4sizeEv.exit.i.i.i.i ]
  call void @_ZN9parameterD1Ev(ptr noundef nonnull align 8 dereferenceable(16) %.046.i.i.i.i.i.i.i) #22
  %37 = getelementptr inbounds nuw i8, ptr %.046.i.i.i.i.i.i.i, i64 16
  %38 = add i32 %.07.i.i.i.i.i.i.i, -1
  %.not.i.i.i.i.i.i.i = icmp eq i32 %38, 0
  br i1 %.not.i.i.i.i.i.i.i, label %_ZN6vectorI9parameterLb1EjE16destroy_elementsEv.exit.loopexit.i.i.i, label %.lr.ph.i.i.i.i.i.i.i, !llvm.loop !50

_ZN6vectorI9parameterLb1EjE16destroy_elementsEv.exit.loopexit.i.i.i: ; preds = %.lr.ph.i.i.i.i.i.i.i
  %.pre.i.i.i = load ptr, ptr %33, align 8, !tbaa !48
  br label %_ZN6vectorI9parameterLb1EjE16destroy_elementsEv.exit.i.i.i

_ZN6vectorI9parameterLb1EjE16destroy_elementsEv.exit.i.i.i: ; preds = %_ZN6vectorI9parameterLb1EjE16destroy_elementsEv.exit.loopexit.i.i.i, %_ZNK6vectorI9parameterLb1EjE4sizeEv.exit.i.i.i.i
  %39 = phi ptr [ %.pre.i.i.i, %_ZN6vectorI9parameterLb1EjE16destroy_elementsEv.exit.loopexit.i.i.i ], [ %34, %_ZNK6vectorI9parameterLb1EjE4sizeEv.exit.i.i.i.i ]
  %40 = getelementptr inbounds i8, ptr %39, i64 -8
  invoke void @_ZN6memory10deallocateEPv(ptr noundef nonnull %40)
          to label %_ZN9decl_infoD2Ev.exit unwind label %41

41:                                               ; preds = %_ZN6vectorI9parameterLb1EjE16destroy_elementsEv.exit.i.i.i
  %42 = landingpad { ptr, i32 }
          catch ptr null
  %43 = extractvalue { ptr, i32 } %42, 0
  call void @__clang_call_terminate(ptr %43) #25
  unreachable

_ZN9decl_infoD2Ev.exit:                           ; preds = %_ZN11ast_manager12mk_func_declERK6symboljPKP4sortS4_RK14func_decl_info.exit, %_ZN6vectorI9parameterLb1EjE16destroy_elementsEv.exit.i.i.i
  call void @llvm.lifetime.end.p0(i64 24, ptr nonnull %5) #22
  ret ptr %32

44:                                               ; preds = %31
  %45 = landingpad { ptr, i32 }
          cleanup
  call void @_ZN9decl_infoD2Ev(ptr noundef nonnull align 8 dereferenceable(19) %5) #22
  call void @llvm.lifetime.end.p0(i64 24, ptr nonnull %5) #22
  br label %common.resume
}